target datalayout = "e-m:e-p270:32:32-p271:32:32-p272:64:64-i64:64-i128:128-f80:128-n8:16:32:64-S128"
target triple = "x86_64-pc-linux-gnu"

%class.Pipeline_Use_Element = type { i32, i32, i32, i8, %class.Pipeline_Use_Cycle_Mask }
%class.Pipeline_Use_Cycle_Mask = type { i32 }
%class.Node_List = type <{ %class.Node_Array, i32, [4 x i8] }>
%class.Node_Array = type { ptr, i32, ptr }
%class.Node = type <{ ptr, ptr, ptr, i32, i32, i32, i32, i32, i32, i32, [4 x i8] }>
%class.Scheduling = type { ptr, ptr, ptr, i32, [4 x i8], %class.Node_List, %class.Node_List, ptr, %class.Node_List, %class.Node_List, ptr, i32, i32, ptr, ptr, ptr, ptr, i32, i32, [11 x %class.Pipeline_Use_Element], %class.Pipeline_Use }
%class.Pipeline_Use = type { i32, i32, i32, ptr }
%class.Pipeline = type { i8, i8, i8, i8, i8, i8, i8, i8, i8, ptr, ptr, ptr, %class.Pipeline_Use }

; Function Attrs: mustprogress nounwind uwtable
define linkonce_odr hidden noundef nonnull align 8 dereferenceable(24) ptr @_ZNK8Pipeline11resourceUseEv(ptr noundef nonnull align 8 dereferenceable(64) %0) #1 comdat align 2 {
  %2 = alloca ptr, align 8
  store ptr %0, ptr %2, align 8
  %3 = load ptr, ptr %2, align 8
  %4 = getelementptr inbounds %class.Pipeline, ptr %3, i32 0, i32 12
  ret ptr %4
}

; Function Attrs: mustprogress nounwind uwtable
define linkonce_odr hidden noundef zeroext i1 @_ZNK4Node7is_MachEv(ptr noundef nonnull align 8 dereferenceable(52) %0) #1 comdat align 2 {
  %2 = alloca ptr, align 8
  store ptr %0, ptr %2, align 8
  %3 = load ptr, ptr %2, align 8
  %4 = getelementptr inbounds %class.Node, ptr %3, i32 0, i32 8
  %5 = load i32, ptr %4, align 4
  %6 = and i32 %5, 3
  %7 = icmp eq i32 %6, 2
  ret i1 %7
}

; Function Attrs: mustprogress nounwind uwtable
define linkonce_odr hidden noundef zeroext i1 @_ZNK8Pipeline14hasBranchDelayEv(ptr noundef nonnull align 8 dereferenceable(64) %0) #1 comdat align 2 {
  %2 = alloca ptr, align 8
  store ptr %0, ptr %2, align 8
  %3 = load ptr, ptr %2, align 8
  %4 = getelementptr inbounds %class.Pipeline, ptr %3, i32 0, i32 5
  %5 = load i8, ptr %4, align 1
  %6 = trunc i8 %5 to i1
  ret i1 %6
}

; Function Attrs: mustprogress nounwind uwtable
define linkonce_odr hidden noundef zeroext i1 @_ZNK8Pipeline13mayHaveNoCodeEv(ptr noundef nonnull align 8 dereferenceable(64) %0) #1 comdat align 2 {
  %2 = alloca ptr, align 8
  store ptr %0, ptr %2, align 8
  %3 = load ptr, ptr %2, align 8
  %4 = getelementptr inbounds %class.Pipeline, ptr %3, i32 0, i32 8
  %5 = load i8, ptr %4, align 8
  %6 = trunc i8 %5 to i1
  ret i1 %6
}

; Function Attrs: mustprogress nounwind uwtable
define linkonce_odr hidden noundef i32 @_ZNK8Pipeline16instructionCountEv(ptr noundef nonnull align 8 dereferenceable(64) %0) #1 comdat align 2 {
  %2 = alloca ptr, align 8
  store ptr %0, ptr %2, align 8
  %3 = load ptr, ptr %2, align 8
  %4 = getelementptr inbounds %class.Pipeline, ptr %3, i32 0, i32 3
  %5 = load i8, ptr %4, align 1
  %6 = zext i8 %5 to i32
  ret i32 %6
}

; Function Attrs: mustprogress nounwind uwtable
define hidden noundef zeroext i1 @_ZN10Scheduling16NodeFitsInBundleEP4Node(ptr noundef nonnull align 8 dereferenceable(472) %0, ptr noundef %1) #1 align 2 {
  %3 = alloca i1, align 1
  %4 = alloca ptr, align 8
  %5 = alloca ptr, align 8
  %6 = alloca i32, align 4
  %7 = alloca ptr, align 8
  %8 = alloca i32, align 4
  %9 = alloca i32, align 4
  store ptr %0, ptr %4, align 8
  store ptr %1, ptr %5, align 8
  %10 = load ptr, ptr %4, align 8
  %11 = load ptr, ptr %5, align 8
  %12 = getelementptr inbounds %class.Node, ptr %11, i32 0, i32 7
  %13 = load i32, ptr %12, align 8
  store i32 %13, ptr %6, align 4
  %14 = load ptr, ptr %5, align 8
  %15 = getelementptr inbounds %class.Scheduling, ptr %10, i32 0, i32 15
  %16 = load ptr, ptr %15, align 8
  %17 = icmp eq ptr %14, %16
  br i1 %17, label %18, label %19

18:                                               ; preds = %2
  store i1 true, ptr %3, align 1
  br label %85

19:                                               ; preds = %2
  %20 = getelementptr inbounds %class.Scheduling, ptr %10, i32 0, i32 13
  %21 = load ptr, ptr %20, align 8
  %22 = load i32, ptr %6, align 4
  %23 = zext i32 %22 to i64
  %24 = getelementptr inbounds i16, ptr %21, i64 %23
  %25 = load i16, ptr %24, align 2
  %26 = zext i16 %25 to i32
  %27 = getelementptr inbounds %class.Scheduling, ptr %10, i32 0, i32 18
  %28 = load i32, ptr %27, align 4
  %29 = icmp ugt i32 %26, %28
  br i1 %29, label %30, label %31

30:                                               ; preds = %19
  store i1 false, ptr %3, align 1
  br label %85

31:                                               ; preds = %19
  %32 = load ptr, ptr %5, align 8
  %33 = load ptr, ptr %32, align 8
  %34 = getelementptr inbounds ptr, ptr %33, i64 10
  %35 = load ptr, ptr %34, align 8
  %36 = call noundef ptr %35(ptr noundef nonnull align 8 dereferenceable(52) %32)
  store ptr %36, ptr %7, align 8
  %37 = load ptr, ptr %7, align 8
  %38 = call noundef i32 @_ZNK8Pipeline16instructionCountEv(ptr noundef nonnull align 8 dereferenceable(64) %37)
  store i32 %38, ptr %8, align 4
  %39 = load ptr, ptr %7, align 8
  %40 = call noundef zeroext i1 @_ZNK8Pipeline13mayHaveNoCodeEv(ptr noundef nonnull align 8 dereferenceable(64) %39)
  br i1 %40, label %41, label %51

41:                                               ; preds = %31
  %42 = load ptr, ptr %5, align 8
  %43 = getelementptr inbounds %class.Scheduling, ptr %10, i32 0, i32 2
  %44 = load ptr, ptr %43, align 8
  %45 = load ptr, ptr %42, align 8
  %46 = getelementptr inbounds ptr, ptr %45, i64 21
  %47 = load ptr, ptr %46, align 8
  %48 = call noundef i32 %47(ptr noundef nonnull align 8 dereferenceable(52) %42, ptr noundef %44)
  %49 = icmp eq i32 %48, 0
  br i1 %49, label %50, label %51

50:                                               ; preds = %41
  store i32 0, ptr %8, align 4
  br label %62

51:                                               ; preds = %41, %31
  %52 = load ptr, ptr %7, align 8
  %53 = call noundef zeroext i1 @_ZNK8Pipeline14hasBranchDelayEv(ptr noundef nonnull align 8 dereferenceable(64) %52)
  br i1 %53, label %54, label %61

54:                                               ; preds = %51
  %55 = getelementptr inbounds %class.Scheduling, ptr %10, i32 0, i32 15
  %56 = load ptr, ptr %55, align 8
  %57 = icmp ne ptr %56, null
  br i1 %57, label %61, label %58

58:                                               ; preds = %54
  %59 = load i32, ptr %8, align 4
  %60 = add i32 %59, 1
  store i32 %60, ptr %8, align 4
  br label %61

61:                                               ; preds = %58, %54, %51
  br label %62

62:                                               ; preds = %61, %50
  %63 = getelementptr inbounds %class.Scheduling, ptr %10, i32 0, i32 17
  %64 = load i32, ptr %63, align 8
  %65 = load i32, ptr %8, align 4
  %66 = add i32 %64, %65
  %67 = icmp ugt i32 %66, 3
  br i1 %67, label %68, label %69

68:                                               ; preds = %62
  store i1 false, ptr %3, align 1
  br label %85

69:                                               ; preds = %62
  %70 = load ptr, ptr %5, align 8
  %71 = call noundef zeroext i1 @_ZNK4Node7is_MachEv(ptr noundef nonnull align 8 dereferenceable(52) %70)
  br i1 %71, label %76, label %72

72:                                               ; preds = %69
  %73 = load i32, ptr %8, align 4
  %74 = icmp eq i32 %73, 0
  br i1 %74, label %75, label %76

75:                                               ; preds = %72
  store i1 false, ptr %3, align 1
  br label %85

76:                                               ; preds = %72, %69
  %77 = getelementptr inbounds %class.Scheduling, ptr %10, i32 0, i32 20
  %78 = load ptr, ptr %7, align 8
  %79 = call noundef nonnull align 8 dereferenceable(24) ptr @_ZNK8Pipeline11resourceUseEv(ptr noundef nonnull align 8 dereferenceable(64) %78)
  %80 = call noundef i32 @_ZNK12Pipeline_Use12full_latencyEjRKS_(ptr noundef nonnull align 8 dereferenceable(24) %77, i32 noundef 0, ptr noundef nonnull align 8 dereferenceable(24) %79)
  store i32 %80, ptr %9, align 4
  %81 = load i32, ptr %9, align 4
  %82 = icmp ugt i32 %81, 0
  br i1 %82, label %83, label %84

83:                                               ; preds = %76
  store i1 false, ptr %3, align 1
  br label %85

84:                                               ; preds = %76
  store i1 true, ptr %3, align 1
  br label %85

85:                                               ; preds = %84, %83, %75, %68, %30, %18
  %86 = load i1, ptr %3, align 1
  ret i1 %86
}