; Function Attrs: mustprogress nounwind uwtable
define hidden noundef zeroext i1 @_ZN10Scheduling16NodeFitsInBundleEP4Node(ptr noundef nonnull align 8 dereferenceable(472) %0, ptr noundef %1) local_unnamed_addr #0 align 2 {
  %3 = getelementptr inbounds i8, ptr %0, i64 200
  %4 = load ptr, ptr %3, align 8
  %5 = icmp eq ptr %4, %1
  br i1 %5, label %58, label %6

6:                                                ; preds = %2
  %7 = getelementptr inbounds i8, ptr %1, i64 40
  %8 = load i32, ptr %7, align 8
  %9 = getelementptr inbounds i8, ptr %0, i64 184
  %10 = load ptr, ptr %9, align 8
  %11 = zext i32 %8 to i64
  %12 = getelementptr inbounds i16, ptr %10, i64 %11
  %13 = load i16, ptr %12, align 2
  %14 = zext i16 %13 to i32
  %15 = getelementptr inbounds i8, ptr %0, i64 220
  %16 = load i32, ptr %15, align 4
  %17 = icmp ult i32 %16, %14
  br i1 %17, label %58, label %18

18:                                               ; preds = %6
  %19 = load ptr, ptr %1, align 8
  %20 = getelementptr inbounds i8, ptr %19, i64 80
  %21 = load ptr, ptr %20, align 8
  %22 = tail call noundef ptr %21(ptr noundef nonnull align 8 dereferenceable(52) %1) #14
  %23 = getelementptr inbounds i8, ptr %22, i64 3
  %24 = load i8, ptr %23, align 1
  %25 = zext i8 %24 to i32
  %26 = getelementptr inbounds i8, ptr %22, i64 8
  %27 = load i8, ptr %26, align 8
  %28 = trunc i8 %27 to i1
  br i1 %28, label %29, label %37

29:                                               ; preds = %18
  %30 = getelementptr inbounds i8, ptr %0, i64 16
  %31 = load ptr, ptr %30, align 8
  %32 = load ptr, ptr %1, align 8
  %33 = getelementptr inbounds i8, ptr %32, i64 168
  %34 = load ptr, ptr %33, align 8
  %35 = tail call noundef i32 %34(ptr noundef nonnull align 8 dereferenceable(52) %1, ptr noundef %31) #14
  %36 = icmp eq i32 %35, 0
  br i1 %36, label %43, label %37

37:                                               ; preds = %29, %18
  %38 = getelementptr inbounds i8, ptr %22, i64 5
  %39 = load i8, ptr %38, align 1
  %40 = trunc i8 %39 to i1
  %41 = load ptr, ptr %3, align 8
  %.not18 = icmp eq ptr %41, null
  %or.cond = select i1 %40, i1 %.not18, i1 false
  %42 = zext i1 %or.cond to i32
  %spec.select = add nuw nsw i32 %42, %25
  br label %43

43:                                               ; preds = %37, %29
  %.016 = phi i32 [ 0, %29 ], [ %spec.select, %37 ]
  %44 = getelementptr inbounds i8, ptr %0, i64 216
  %45 = load i32, ptr %44, align 8
  %46 = add i32 %45, %.016
  %47 = icmp ugt i32 %46, 3
  br i1 %47, label %58, label %48

48:                                               ; preds = %43
  %49 = getelementptr inbounds i8, ptr %1, i64 44
  %50 = load i32, ptr %49, align 4
  %51 = and i32 %50, 3
  %52 = icmp eq i32 %51, 2
  %53 = icmp ne i32 %.016, 0
  %or.cond.not = or i1 %53, %52
  br i1 %or.cond.not, label %54, label %58

54:                                               ; preds = %48
  %55 = getelementptr inbounds i8, ptr %0, i64 448
  %56 = getelementptr inbounds i8, ptr %22, i64 40
  %57 = tail call noundef i32 @_ZNK12Pipeline_Use12full_latencyEjRKS_(ptr noundef nonnull align 8 dereferenceable(24) %55, i32 noundef 0, ptr noundef nonnull align 8 dereferenceable(24) %56) #14
  %.not = icmp eq i32 %57, 0
  br label %58

58:                                               ; preds = %54, %48, %43, %6, %2
  %.0 = phi i1 [ true, %2 ], [ false, %6 ], [ false, %43 ], [ false, %48 ], [ %.not, %54 ]
  ret i1 %.0
}